; Function Attrs: mustprogress uwtable
define void @_ZN6icu_7717CanonicalIterator4nextEv(ptr dead_on_unwind noalias writable sret(%"class.icu_77::UnicodeString") align 8 %0, ptr noundef nonnull align 8 dereferenceable(200) %1) local_unnamed_addr #1 align 2 {
  %3 = getelementptr inbounds nuw i8, ptr %1, i64 72
  %4 = load i8, ptr %3, align 8, !tbaa !25
  %.not = icmp eq i8 %4, 0
  %5 = getelementptr inbounds nuw i8, ptr %1, i64 120
  br i1 %.not, label %7, label %6

6:                                                ; preds = %2
  tail call void @_ZN6icu_7713UnicodeString10setToBogusEv(ptr noundef nonnull align 8 dereferenceable(64) %5)
  br label %.loopexit

7:                                                ; preds = %2
  %8 = getelementptr inbounds nuw i8, ptr %1, i64 128
  %9 = load i16, ptr %8, align 8, !tbaa !6
  %10 = and i16 %9, 1
  %.not.i = icmp eq i16 %10, 0
  %11 = and i16 %9, 30
  %storemerge.i = select i1 %.not.i, i16 %11, i16 2
  store i16 %storemerge.i, ptr %8, align 8, !tbaa !6
  %12 = getelementptr inbounds nuw i8, ptr %1, i64 88
  %13 = load i32, ptr %12, align 8, !tbaa !20
  %14 = icmp sgt i32 %13, 0
  br i1 %14, label %.lr.ph, label %._crit_edge

.lr.ph:                                           ; preds = %7
  %15 = getelementptr inbounds nuw i8, ptr %1, i64 80
  %16 = getelementptr inbounds nuw i8, ptr %1, i64 104
  br label %17

17:                                               ; preds = %.lr.ph, %17
  %indvars.iv = phi i64 [ 0, %.lr.ph ], [ %indvars.iv.next, %17 ]
  %18 = load ptr, ptr %15, align 8, !tbaa !8
  %19 = getelementptr inbounds nuw ptr, ptr %18, i64 %indvars.iv
  %20 = load ptr, ptr %19, align 8, !tbaa !30
  %21 = load ptr, ptr %16, align 8, !tbaa !27
  %22 = getelementptr inbounds nuw i32, ptr %21, i64 %indvars.iv
  %23 = load i32, ptr %22, align 4, !tbaa !29
  %24 = sext i32 %23 to i64
  %25 = getelementptr inbounds %"class.icu_77::UnicodeString", ptr %20, i64 %24
  %26 = getelementptr inbounds nuw i8, ptr %25, i64 8
  %27 = load i16, ptr %26, align 8, !tbaa !6
  %28 = icmp slt i16 %27, 0
  %29 = ashr i16 %27, 5
  %30 = sext i16 %29 to i32
  %31 = getelementptr inbounds nuw i8, ptr %25, i64 12
  %32 = load i32, ptr %31, align 4
  %33 = select i1 %28, i32 %32, i32 %30
  %34 = tail call noundef nonnull align 8 dereferenceable(64) ptr @_ZN6icu_7713UnicodeString8doAppendERKS0_ii(ptr noundef nonnull align 8 dereferenceable(64) %5, ptr noundef nonnull align 8 dereferenceable(64) %25, i32 noundef 0, i32 noundef %33)
  %indvars.iv.next = add nuw nsw i64 %indvars.iv, 1
  %35 = load i32, ptr %12, align 8, !tbaa !20
  %36 = sext i32 %35 to i64
  %37 = icmp slt i64 %indvars.iv.next, %36
  br i1 %37, label %17, label %._crit_edge, !llvm.loop !37

._crit_edge:                                      ; preds = %17, %7
  %38 = getelementptr inbounds nuw i8, ptr %1, i64 112
  %39 = load i32, ptr %38, align 8, !tbaa !28
  %40 = icmp slt i32 %39, 1
  br i1 %40, label %._crit_edge15, label %.lr.ph14

.lr.ph14:                                         ; preds = %._crit_edge
  %41 = getelementptr inbounds nuw i8, ptr %1, i64 104
  %42 = load ptr, ptr %41, align 8, !tbaa !27
  %43 = getelementptr inbounds nuw i8, ptr %1, i64 96
  %44 = load ptr, ptr %43, align 8, !tbaa !26
  %45 = zext nneg i32 %39 to i64
  br label %46

._crit_edge15:                                    ; preds = %53, %._crit_edge
  store i8 1, ptr %3, align 8, !tbaa !25
  br label %.loopexit

46:                                               ; preds = %.lr.ph14, %53
  %indvars.iv17 = phi i64 [ %45, %.lr.ph14 ], [ %indvars.iv.next18, %53 ]
  %indvars.iv.next18 = add nsw i64 %indvars.iv17, -1
  %47 = getelementptr inbounds nuw i32, ptr %42, i64 %indvars.iv.next18
  %48 = load i32, ptr %47, align 4, !tbaa !29
  %49 = add nsw i32 %48, 1
  store i32 %49, ptr %47, align 4, !tbaa !29
  %50 = getelementptr inbounds nuw i32, ptr %44, i64 %indvars.iv.next18
  %51 = load i32, ptr %50, align 4, !tbaa !29
  %52 = icmp slt i32 %49, %51
  br i1 %52, label %.loopexit, label %53

53:                                               ; preds = %46
  store i32 0, ptr %47, align 4, !tbaa !29
  %54 = icmp samesign ult i64 %indvars.iv17, 2
  br i1 %54, label %._crit_edge15, label %46, !llvm.loop !38

.loopexit:                                        ; preds = %46, %._crit_edge15, %6
  tail call void @_ZN6icu_7713UnicodeStringC1ERKS0_(ptr noundef nonnull align 8 dereferenceable(64) %0, ptr noundef nonnull align 8 dereferenceable(64) %5)
  ret void
}